; ModuleID = 'source-C-CXX/22/155.c'
source_filename = "source-C-CXX/22/155.c"
target datalayout = "e-m:e-p270:32:32-p271:32:32-p272:64:64-i64:64-f80:128-n8:16:32:64-S128"
target triple = "x86_64-pc-linux-gnu"

@.str = private unnamed_addr constant [4 x i8] c"%s \00", align 1
@.str.1 = private unnamed_addr constant [3 x i8] c"%s\00", align 1

; Function Attrs: nounwind sspstrong uwtable
define dso_local i32 @main() local_unnamed_addr #0 {
  %1 = alloca [101 x i8], align 16
  %2 = alloca [100 x [100 x i8]], align 16
  %3 = getelementptr inbounds [101 x i8], [101 x i8]* %1, i64 0, i64 0
  call void @llvm.lifetime.start.p0i8(i64 101, i8* nonnull %3) #4
  %4 = getelementptr inbounds [100 x [100 x i8]], [100 x [100 x i8]]* %2, i64 0, i64 0, i64 0
  call void @llvm.lifetime.start.p0i8(i64 10000, i8* nonnull %4) #4
  %5 = call i32 (i8*, ...) bitcast (i32 (...)* @gets to i32 (i8*, ...)*)(i8* nonnull %3) #4
  br label %6

6:                                                ; preds = %23, %0
  %7 = phi i64 [ %26, %23 ], [ 0, %0 ]
  %8 = phi i32 [ %24, %23 ], [ 0, %0 ]
  %9 = phi i32 [ %25, %23 ], [ 0, %0 ]
  %10 = getelementptr inbounds [101 x i8], [101 x i8]* %1, i64 0, i64 %7
  %11 = load i8, i8* %10, align 1, !tbaa !5
  switch i8 %11, label %16 [
    i8 0, label %12
    i8 32, label %21
  ]

12:                                               ; preds = %6
  %13 = icmp sgt i32 %8, 0
  br i1 %13, label %14, label %33

14:                                               ; preds = %12
  %15 = zext i32 %8 to i64
  br label %27

16:                                               ; preds = %6
  %17 = sext i32 %8 to i64
  %18 = sext i32 %9 to i64
  %19 = getelementptr inbounds [100 x [100 x i8]], [100 x [100 x i8]]* %2, i64 0, i64 %17, i64 %18
  store i8 %11, i8* %19, align 1, !tbaa !5
  %20 = add nsw i32 %9, 1
  br label %23

21:                                               ; preds = %6
  %22 = add nsw i32 %8, 1
  br label %23

23:                                               ; preds = %21, %16
  %24 = phi i32 [ %8, %16 ], [ %22, %21 ]
  %25 = phi i32 [ %20, %16 ], [ 0, %21 ]
  %26 = add nuw i64 %7, 1
  br label %6, !llvm.loop !8

27:                                               ; preds = %14, %27
  %28 = phi i64 [ %15, %14 ], [ %32, %27 ]
  %29 = getelementptr inbounds [100 x [100 x i8]], [100 x [100 x i8]]* %2, i64 0, i64 %28, i64 0
  %30 = call i32 (i8*, ...) @printf(i8* nonnull dereferenceable(1) getelementptr inbounds ([4 x i8], [4 x i8]* @.str, i64 0, i64 0), i8* nonnull %29)
  %31 = icmp sgt i64 %28, 1
  %32 = add nsw i64 %28, -1
  br i1 %31, label %27, label %33, !llvm.loop !10

33:                                               ; preds = %27, %12
  %34 = call i32 (i8*, ...) @printf(i8* nonnull dereferenceable(1) getelementptr inbounds ([3 x i8], [3 x i8]* @.str.1, i64 0, i64 0), i8* nonnull %4)
  call void @llvm.lifetime.end.p0i8(i64 10000, i8* nonnull %4) #4
  call void @llvm.lifetime.end.p0i8(i64 101, i8* nonnull %3) #4
  ret i32 0
}

; Function Attrs: argmemonly mustprogress nofree nosync nounwind willreturn
declare void @llvm.lifetime.start.p0i8(i64 immarg, i8* nocapture) #1

declare i32 @gets(...) local_unnamed_addr #2

; Function Attrs: nofree nounwind
declare noundef i32 @printf(i8* nocapture noundef readonly, ...) local_unnamed_addr #3

; Function Attrs: argmemonly mustprogress nofree nosync nounwind willreturn
declare void @llvm.lifetime.end.p0i8(i64 immarg, i8* nocapture) #1


!llvm.module.flags = !{!0, !1, !2, !3}
!llvm.ident = !{!4}

!0 = !{i32 1, !"wchar_size", i32 4}
!1 = !{i32 7, !"PIC Level", i32 2}
!2 = !{i32 7, !"PIE Level", i32 2}
!3 = !{i32 7, !"uwtable", i32 1}
!4 = !{!"clang version 13.0.0"}
!5 = !{!6, !6, i64 0}
!6 = !{!"omnipotent char", !7, i64 0}
!7 = !{!"Simple C/C++ TBAA"}
!8 = distinct !{!8, !9}
!9 = !{!"llvm.loop.mustprogress"}
!10 = distinct !{!10, !9}
